target datalayout = "e-m:e-p270:32:32-p271:32:32-p272:64:64-i64:64-i128:128-f80:128-n8:16:32:64-S128"
target triple = "x86_64-pc-linux-gnu"

%struct.lzma_next_coder_s = type { ptr, i64, i64, ptr, ptr, ptr, ptr, ptr, ptr, ptr }
%struct.lzma_auto_coder = type { %struct.lzma_next_coder_s, i64, i32, i32 }

; Function Attrs: nounwind uwtable
define internal i32 @auto_decoder_get_check(ptr noundef %0) #0 {
  %2 = alloca ptr, align 8
  %3 = alloca ptr, align 8
  store ptr %0, ptr %2, align 8, !tbaa !4
  call void @llvm.lifetime.start.p0(i64 8, ptr %3) #6
  %4 = load ptr, ptr %2, align 8, !tbaa !4
  store ptr %4, ptr %3, align 8, !tbaa !4
  %5 = load ptr, ptr %3, align 8, !tbaa !4
  %6 = getelementptr inbounds nuw %struct.lzma_auto_coder, ptr %5, i32 0, i32 0
  %7 = getelementptr inbounds nuw %struct.lzma_next_coder_s, ptr %6, i32 0, i32 6
  %8 = load ptr, ptr %7, align 8, !tbaa !40
  %9 = icmp eq ptr %8, null
  br i1 %9, label %10, label %11

10:                                               ; preds = %1
  br label %21

11:                                               ; preds = %1
  %12 = load ptr, ptr %3, align 8, !tbaa !4
  %13 = getelementptr inbounds nuw %struct.lzma_auto_coder, ptr %12, i32 0, i32 0
  %14 = getelementptr inbounds nuw %struct.lzma_next_coder_s, ptr %13, i32 0, i32 6
  %15 = load ptr, ptr %14, align 8, !tbaa !40
  %16 = load ptr, ptr %3, align 8, !tbaa !4
  %17 = getelementptr inbounds nuw %struct.lzma_auto_coder, ptr %16, i32 0, i32 0
  %18 = getelementptr inbounds nuw %struct.lzma_next_coder_s, ptr %17, i32 0, i32 0
  %19 = load ptr, ptr %18, align 8, !tbaa !39
  %20 = call i32 %15(ptr noundef %19)
  br label %21

21:                                               ; preds = %11, %10
  %22 = phi i32 [ 0, %10 ], [ %20, %11 ]
  call void @llvm.lifetime.end.p0(i64 8, ptr %3) #6
  ret i32 %22
}