; Function Attrs: nounwind uwtable
define internal i32 @auto_decoder_get_check(ptr noundef readonly captures(none) %0) #0 {
  %2 = getelementptr inbounds nuw i8, ptr %0, i64 48
  %3 = load ptr, ptr %2, align 8, !tbaa !32
  %4 = icmp eq ptr %3, null
  br i1 %4, label %8, label %5

5:                                                ; preds = %1
  %6 = load ptr, ptr %0, align 8, !tbaa !31
  %7 = tail call i32 %3(ptr noundef %6) #5
  br label %8

8:                                                ; preds = %1, %5
  %9 = phi i32 [ %7, %5 ], [ 0, %1 ]
  ret i32 %9
}